target datalayout = "e-m:e-p270:32:32-p271:32:32-p272:64:64-i64:64-i128:128-f80:128-n8:16:32:64-S128"
target triple = "x86_64-pc-linux-gnu"

%struct._zend_accel_globals = type { i8, i8, i8, i8, i8, %struct._zend_accel_directives, ptr, ptr, [32 x i8], [32 x i8], i32, i8, i32, i8, i32, i64, i64, %struct._zend_array, i64, ptr, ptr, ptr, ptr, %struct._zend_string, [32768 x i8] }
%struct._zend_accel_directives = type { i64, i64, double, ptr, i64, i8, i8, i8, i8, i8, i8, i8, i8, i8, i8, i8, i64, i64, ptr, ptr, i64, i64, i64, i64, i64, ptr, ptr, ptr, i8, i8, i8, ptr, ptr }
%struct._zend_array = type { %struct._zend_refcounted_h, %union.anon.0, i32, %union.anon.1, i32, i32, i32, i32, i64, ptr }
%struct._zend_refcounted_h = type { i32, %union.anon }
%union.anon = type { i32 }
%union.anon.0 = type { i32 }
%union.anon.1 = type { ptr }
%struct._zend_string = type { %struct._zend_refcounted_h, i64, i64, [1 x i8] }
%struct._zend_accel_hash = type { ptr, ptr, i32, i32, i32 }
%struct._zend_accel_hash_entry = type { i64, ptr, ptr, ptr, i8 }

@accel_globals = external global %struct._zend_accel_globals, align 8

; Function Attrs: nounwind uwtable
define hidden ptr @zend_accel_hash_find(ptr noundef %0, ptr noundef %1) #0 {
  %3 = alloca ptr, align 8
  %4 = alloca ptr, align 8
  %5 = alloca ptr, align 8
  %6 = alloca ptr, align 8
  %7 = alloca ptr, align 8
  %8 = alloca ptr, align 8
  %9 = alloca ptr, align 8
  %10 = alloca ptr, align 8
  %11 = alloca i32, align 4
  %12 = alloca i64, align 8
  %13 = alloca ptr, align 8
  %14 = alloca i64, align 8
  %15 = alloca ptr, align 8
  %16 = alloca ptr, align 8
  store ptr %0, ptr %15, align 8
  store ptr %1, ptr %16, align 8
  %17 = load ptr, ptr %15, align 8
  %18 = load ptr, ptr %16, align 8
  store ptr %17, ptr %9, align 8
  store ptr %18, ptr %10, align 8
  store i32 1, ptr %11, align 4
  %19 = load ptr, ptr %10, align 8
  store ptr %19, ptr %7, align 8
  %20 = load ptr, ptr %7, align 8
  %21 = getelementptr inbounds %struct._zend_string, ptr %20, i32 0, i32 1
  %22 = load i64, ptr %21, align 8
  %23 = icmp ne i64 %22, 0
  br i1 %23, label %24, label %28

24:                                               ; preds = %2
  %25 = load ptr, ptr %7, align 8
  %26 = getelementptr inbounds %struct._zend_string, ptr %25, i32 0, i32 1
  %27 = load i64, ptr %26, align 8
  br label %31

28:                                               ; preds = %2
  %29 = load ptr, ptr %7, align 8
  %30 = call i64 @zend_string_hash_func(ptr noundef %29) #5
  br label %31

31:                                               ; preds = %28, %24
  %32 = phi i64 [ %27, %24 ], [ %30, %28 ]
  store i64 %32, ptr %14, align 8
  %33 = load i64, ptr getelementptr inbounds (%struct._zend_accel_globals, ptr @accel_globals, i32 0, i32 18), align 8
  %34 = load i64, ptr %14, align 8
  %35 = xor i64 %34, %33
  store i64 %35, ptr %14, align 8
  %36 = load i64, ptr %14, align 8
  %37 = load ptr, ptr %9, align 8
  %38 = getelementptr inbounds %struct._zend_accel_hash, ptr %37, i32 0, i32 3
  %39 = load i32, ptr %38, align 4
  %40 = zext i32 %39 to i64
  %41 = urem i64 %36, %40
  store i64 %41, ptr %12, align 8
  %42 = load ptr, ptr %9, align 8
  %43 = load ptr, ptr %42, align 8
  %44 = load i64, ptr %12, align 8
  %45 = getelementptr inbounds ptr, ptr %43, i64 %44
  %46 = load ptr, ptr %45, align 8
  store ptr %46, ptr %13, align 8
  br label %47

47:                                               ; preds = %108, %31
  %48 = load ptr, ptr %13, align 8
  %49 = icmp ne ptr %48, null
  br i1 %49, label %50, label %112

50:                                               ; preds = %47
  %51 = load ptr, ptr %13, align 8
  %52 = load i64, ptr %51, align 8
  %53 = load i64, ptr %14, align 8
  %54 = icmp eq i64 %52, %53
  br i1 %54, label %55, label %108

55:                                               ; preds = %50
  %56 = load ptr, ptr %13, align 8
  %57 = getelementptr inbounds %struct._zend_accel_hash_entry, ptr %56, i32 0, i32 1
  %58 = load ptr, ptr %57, align 8
  %59 = load ptr, ptr %10, align 8
  store ptr %58, ptr %5, align 8
  store ptr %59, ptr %6, align 8
  %60 = load ptr, ptr %5, align 8
  %61 = load ptr, ptr %6, align 8
  %62 = icmp eq ptr %60, %61
  br i1 %62, label %79, label %63

63:                                               ; preds = %55
  %64 = load ptr, ptr %5, align 8
  %65 = load ptr, ptr %6, align 8
  store ptr %64, ptr %3, align 8
  store ptr %65, ptr %4, align 8
  %66 = load ptr, ptr %3, align 8
  %67 = getelementptr inbounds %struct._zend_string, ptr %66, i32 0, i32 2
  %68 = load i64, ptr %67, align 8
  %69 = load ptr, ptr %4, align 8
  %70 = getelementptr inbounds %struct._zend_string, ptr %69, i32 0, i32 2
  %71 = load i64, ptr %70, align 8
  %72 = icmp eq i64 %68, %71
  br i1 %72, label %73, label %77

73:                                               ; preds = %63
  %74 = load ptr, ptr %3, align 8
  %75 = load ptr, ptr %4, align 8
  %76 = call zeroext i1 @zend_string_equal_val(ptr noundef %74, ptr noundef %75) #5
  br label %77

77:                                               ; preds = %73, %63
  %78 = phi i1 [ false, %63 ], [ %76, %73 ]
  br label %79

79:                                               ; preds = %77, %55
  %80 = phi i1 [ true, %55 ], [ %78, %77 ]
  br i1 %80, label %81, label %108

81:                                               ; preds = %79
  %82 = load ptr, ptr %13, align 8
  %83 = getelementptr inbounds %struct._zend_accel_hash_entry, ptr %82, i32 0, i32 4
  %84 = load i8, ptr %83, align 8
  %85 = trunc i8 %84 to i1
  br i1 %85, label %86, label %99

86:                                               ; preds = %81
  %87 = load i32, ptr %11, align 4
  %88 = icmp ne i32 %87, 0
  br i1 %88, label %89, label %95

89:                                               ; preds = %86
  %90 = load ptr, ptr %13, align 8
  %91 = getelementptr inbounds %struct._zend_accel_hash_entry, ptr %90, i32 0, i32 3
  %92 = load ptr, ptr %91, align 8
  %93 = getelementptr inbounds %struct._zend_accel_hash_entry, ptr %92, i32 0, i32 3
  %94 = load ptr, ptr %93, align 8
  store ptr %94, ptr %8, align 8
  br label %113

95:                                               ; preds = %86
  %96 = load ptr, ptr %13, align 8
  %97 = getelementptr inbounds %struct._zend_accel_hash_entry, ptr %96, i32 0, i32 3
  %98 = load ptr, ptr %97, align 8
  store ptr %98, ptr %8, align 8
  br label %113

99:                                               ; preds = %81
  %100 = load i32, ptr %11, align 4
  %101 = icmp ne i32 %100, 0
  br i1 %101, label %102, label %106

102:                                              ; preds = %99
  %103 = load ptr, ptr %13, align 8
  %104 = getelementptr inbounds %struct._zend_accel_hash_entry, ptr %103, i32 0, i32 3
  %105 = load ptr, ptr %104, align 8
  store ptr %105, ptr %8, align 8
  br label %113

106:                                              ; preds = %99
  %107 = load ptr, ptr %13, align 8
  store ptr %107, ptr %8, align 8
  br label %113

108:                                              ; preds = %79, %50
  %109 = load ptr, ptr %13, align 8
  %110 = getelementptr inbounds %struct._zend_accel_hash_entry, ptr %109, i32 0, i32 2
  %111 = load ptr, ptr %110, align 8
  store ptr %111, ptr %13, align 8
  br label %47

112:                                              ; preds = %47
  store ptr null, ptr %8, align 8
  br label %113

113:                                              ; preds = %112, %106, %102, %95, %89
  %114 = load ptr, ptr %8, align 8
  ret ptr %114
}